target datalayout = "e-m:e-p270:32:32-p271:32:32-p272:64:64-i64:64-i128:128-f80:128-n8:16:32:64-S128"
target triple = "x86_64-unknown-linux-gnu"

%"class.sat::literal" = type { i32 }
%"class.sat::cut_simplifier" = type { ptr, %"struct.sat::cut_simplifier::stats", %"struct.sat::cut_simplifier::config", %"class.sat::aig_cuts", i32, %class.svector, ptr, %class.hashtable }
%"struct.sat::cut_simplifier::stats" = type { i32, i32, i32, i32, i32, i32, i32, i32, i32, i32, i32, i32, i32 }
%"struct.sat::cut_simplifier::config" = type { i8, i8, i8, i8, i8, i8, i8 }
%"class.sat::aig_cuts" = type { %class.random_gen, %"struct.sat::aig_cuts::config", %class.vector, %class.svector, %class.region, %"class.sat::cut_set", %"class.sat::cut_set", %"class.sat::cut_set", %class.vector.1, %class.svector.2, %class.svector.2, i32, i32, %class.svector.4, i32, %"class.std::function", %"class.std::function", %"class.std::function.6", %"class.std::function.6", %class.svector, [6 x ptr], [6 x i64], [6 x %"class.sat::literal"] }
%class.random_gen = type { i32 }
%"struct.sat::aig_cuts::config" = type <{ i32, i32, i32, i8, [3 x i8] }>
%class.vector = type { ptr }
%class.region = type { ptr, ptr, ptr, ptr, ptr }
%"class.sat::cut_set" = type { i32, ptr, i32, i32, ptr }
%class.vector.1 = type { ptr }
%class.svector.2 = type { %class.vector.3 }
%class.vector.3 = type { ptr }
%class.svector.4 = type { %class.vector.5 }
%class.vector.5 = type { ptr }
%"class.std::function" = type { %"class.std::_Function_base", ptr }
%"class.std::_Function_base" = type { %"union.std::_Any_data", ptr }
%"union.std::_Any_data" = type { %"union.std::_Nocopy_types" }
%"union.std::_Nocopy_types" = type { { i64, i64 } }
%"class.std::function.6" = type { %"class.std::_Function_base", ptr }
%class.svector = type { %class.vector.0 }
%class.vector.0 = type { ptr }
%class.hashtable = type { %class.core_hashtable.base, [4 x i8] }
%class.core_hashtable.base = type <{ ptr, i32, i32, i32 }>

; Function Attrs: mustprogress uwtable
define linkonce_odr hidden noundef nonnull align 8 dereferenceable(8) ptr @_ZN6vectorIN3sat7literalELb0EjE9push_backERKS1_(ptr noundef nonnull align 8 dereferenceable(8) %this, ptr noundef nonnull align 4 dereferenceable(4) %elem) #5 comdat align 2 {
entry:
  %this.addr = alloca ptr, align 8
  %elem.addr = alloca ptr, align 8
  store ptr %this, ptr %this.addr, align 8
  store ptr %elem, ptr %elem.addr, align 8
  %this1 = load ptr, ptr %this.addr, align 8
  %m_data = getelementptr inbounds %class.vector.0, ptr %this1, i32 0, i32 0
  %0 = load ptr, ptr %m_data, align 8
  %cmp = icmp eq ptr %0, null
  br i1 %cmp, label %if.then, label %lor.lhs.false

lor.lhs.false:                                    ; preds = %entry
  %m_data2 = getelementptr inbounds %class.vector.0, ptr %this1, i32 0, i32 0
  %1 = load ptr, ptr %m_data2, align 8
  %arrayidx = getelementptr inbounds i32, ptr %1, i64 -1
  %2 = load i32, ptr %arrayidx, align 4
  %m_data3 = getelementptr inbounds %class.vector.0, ptr %this1, i32 0, i32 0
  %3 = load ptr, ptr %m_data3, align 8
  %arrayidx4 = getelementptr inbounds i32, ptr %3, i64 -2
  %4 = load i32, ptr %arrayidx4, align 4
  %cmp5 = icmp eq i32 %2, %4
  br i1 %cmp5, label %if.then, label %if.end

if.then:                                          ; preds = %lor.lhs.false, %entry
  call void @_ZN6vectorIN3sat7literalELb0EjE13expand_vectorEv(ptr noundef nonnull align 8 dereferenceable(8) %this1)
  br label %if.end

if.end:                                           ; preds = %if.then, %lor.lhs.false
  %m_data6 = getelementptr inbounds %class.vector.0, ptr %this1, i32 0, i32 0
  %5 = load ptr, ptr %m_data6, align 8
  %m_data7 = getelementptr inbounds %class.vector.0, ptr %this1, i32 0, i32 0
  %6 = load ptr, ptr %m_data7, align 8
  %arrayidx8 = getelementptr inbounds i32, ptr %6, i64 -1
  %7 = load i32, ptr %arrayidx8, align 4
  %idx.ext = zext i32 %7 to i64
  %add.ptr = getelementptr inbounds %"class.sat::literal", ptr %5, i64 %idx.ext
  %8 = load ptr, ptr %elem.addr, align 8
  call void @llvm.memcpy.p0.p0.i64(ptr align 4 %add.ptr, ptr align 4 %8, i64 4, i1 false)
  %m_data9 = getelementptr inbounds %class.vector.0, ptr %this1, i32 0, i32 0
  %9 = load ptr, ptr %m_data9, align 8
  %arrayidx10 = getelementptr inbounds i32, ptr %9, i64 -1
  %10 = load i32, ptr %arrayidx10, align 4
  %inc = add i32 %10, 1
  store i32 %inc, ptr %arrayidx10, align 4
  ret ptr %this1
}

; Function Attrs: mustprogress nounwind uwtable
define linkonce_odr hidden noundef ptr @_ZNK6vectorIN3sat7literalELb0EjE4dataEv(ptr noundef nonnull align 8 dereferenceable(8) %this) #4 comdat align 2 {
entry:
  %this.addr = alloca ptr, align 8
  store ptr %this, ptr %this.addr, align 8
  %this1 = load ptr, ptr %this.addr, align 8
  %m_data = getelementptr inbounds %class.vector.0, ptr %this1, i32 0, i32 0
  %0 = load ptr, ptr %m_data, align 8
  ret ptr %0
}

; Function Attrs: mustprogress nounwind uwtable
define linkonce_odr hidden i32 @_ZN3satcoENS_7literalE(i32 %l.coerce) #4 comdat {
entry:
  %retval = alloca %"class.sat::literal", align 4
  %l = alloca %"class.sat::literal", align 4
  %coerce.dive = getelementptr inbounds %"class.sat::literal", ptr %l, i32 0, i32 0
  store i32 %l.coerce, ptr %coerce.dive, align 4
  %m_val = getelementptr inbounds %"class.sat::literal", ptr %l, i32 0, i32 0
  %0 = load i32, ptr %m_val, align 4
  %xor = xor i32 %0, 1
  %m_val1 = getelementptr inbounds %"class.sat::literal", ptr %l, i32 0, i32 0
  store i32 %xor, ptr %m_val1, align 4
  call void @llvm.memcpy.p0.p0.i64(ptr align 4 %retval, ptr align 4 %l, i64 4, i1 false)
  %coerce.dive2 = getelementptr inbounds %"class.sat::literal", ptr %retval, i32 0, i32 0
  %1 = load i32, ptr %coerce.dive2, align 4
  ret i32 %1
}

; Function Attrs: mustprogress nounwind uwtable
define linkonce_odr hidden void @_ZN3sat7literal3negEv(ptr noundef nonnull align 4 dereferenceable(4) %this) #4 comdat align 2 {
entry:
  %this.addr = alloca ptr, align 8
  store ptr %this, ptr %this.addr, align 8
  %this1 = load ptr, ptr %this.addr, align 8
  %m_val = getelementptr inbounds %"class.sat::literal", ptr %this1, i32 0, i32 0
  %0 = load i32, ptr %m_val, align 4
  %xor = xor i32 %0, 1
  %m_val2 = getelementptr inbounds %"class.sat::literal", ptr %this1, i32 0, i32 0
  store i32 %xor, ptr %m_val2, align 4
  ret void
}

; Function Attrs: mustprogress nounwind uwtable
define linkonce_odr hidden noundef nonnull align 4 dereferenceable(4) ptr @_ZN6vectorIN3sat7literalELb0EjEixEj(ptr noundef nonnull align 8 dereferenceable(8) %this, i32 noundef %idx) #4 comdat align 2 {
entry:
  %this.addr = alloca ptr, align 8
  %idx.addr = alloca i32, align 4
  store ptr %this, ptr %this.addr, align 8
  store i32 %idx, ptr %idx.addr, align 4
  %this1 = load ptr, ptr %this.addr, align 8
  %m_data = getelementptr inbounds %class.vector.0, ptr %this1, i32 0, i32 0
  %0 = load ptr, ptr %m_data, align 8
  %1 = load i32, ptr %idx.addr, align 4
  %idxprom = zext i32 %1 to i64
  %arrayidx = getelementptr inbounds %"class.sat::literal", ptr %0, i64 %idxprom
  ret ptr %arrayidx
}

; Function Attrs: mustprogress uwtable
define linkonce_odr hidden void @_ZN6vectorIN3sat7literalELb0EjE6appendEjPKS1_(ptr noundef nonnull align 8 dereferenceable(8) %this, i32 noundef %sz, ptr noundef %data) #5 comdat align 2 {
entry:
  %this.addr = alloca ptr, align 8
  %sz.addr = alloca i32, align 4
  %data.addr = alloca ptr, align 8
  %i = alloca i32, align 4
  store ptr %this, ptr %this.addr, align 8
  store i32 %sz, ptr %sz.addr, align 4
  store ptr %data, ptr %data.addr, align 8
  %this1 = load ptr, ptr %this.addr, align 8
  store i32 0, ptr %i, align 4
  br label %for.cond

for.cond:                                         ; preds = %for.inc, %entry
  %0 = load i32, ptr %i, align 4
  %1 = load i32, ptr %sz.addr, align 4
  %cmp = icmp ult i32 %0, %1
  br i1 %cmp, label %for.body, label %for.end

for.body:                                         ; preds = %for.cond
  %2 = load ptr, ptr %data.addr, align 8
  %3 = load i32, ptr %i, align 4
  %idxprom = zext i32 %3 to i64
  %arrayidx = getelementptr inbounds %"class.sat::literal", ptr %2, i64 %idxprom
  %call = call noundef nonnull align 8 dereferenceable(8) ptr @_ZN6vectorIN3sat7literalELb0EjE9push_backERKS1_(ptr noundef nonnull align 8 dereferenceable(8) %this1, ptr noundef nonnull align 4 dereferenceable(4) %arrayidx)
  br label %for.inc

for.inc:                                          ; preds = %for.body
  %4 = load i32, ptr %i, align 4
  %inc = add i32 %4, 1
  store i32 %inc, ptr %i, align 4
  br label %for.cond, !llvm.loop !7

for.end:                                          ; preds = %for.cond
  ret void
}

; Function Attrs: mustprogress nounwind uwtable
define linkonce_odr hidden void @_ZN6vectorIN3sat7literalELb0EjE5resetEv(ptr noundef nonnull align 8 dereferenceable(8) %this) #4 comdat align 2 {
entry:
  %this.addr = alloca ptr, align 8
  store ptr %this, ptr %this.addr, align 8
  %this1 = load ptr, ptr %this.addr, align 8
  %m_data = getelementptr inbounds %class.vector.0, ptr %this1, i32 0, i32 0
  %0 = load ptr, ptr %m_data, align 8
  %tobool = icmp ne ptr %0, null
  br i1 %tobool, label %if.then, label %if.end

if.then:                                          ; preds = %entry
  %m_data2 = getelementptr inbounds %class.vector.0, ptr %this1, i32 0, i32 0
  %1 = load ptr, ptr %m_data2, align 8
  %arrayidx = getelementptr inbounds i32, ptr %1, i64 -1
  store i32 0, ptr %arrayidx, align 4
  br label %if.end

if.end:                                           ; preds = %if.then, %entry
  ret void
}

; Function Attrs: mustprogress uwtable
define hidden void @_ZN3sat14cut_simplifier6add_orENS_7literalEjPKS1_(ptr noundef nonnull align 8 dereferenceable(600) %this, i32 %head.coerce, i32 noundef %sz, ptr noundef %lits) #5 align 2 {
entry:
  %head = alloca %"class.sat::literal", align 4
  %this.addr = alloca ptr, align 8
  %sz.addr = alloca i32, align 4
  %lits.addr = alloca ptr, align 8
  %i = alloca i32, align 4
  %agg.tmp = alloca %"class.sat::literal", align 4
  %agg.tmp4 = alloca %"class.sat::literal", align 4
  %coerce.dive = getelementptr inbounds %"class.sat::literal", ptr %head, i32 0, i32 0
  store i32 %head.coerce, ptr %coerce.dive, align 4
  store ptr %this, ptr %this.addr, align 8
  store i32 %sz, ptr %sz.addr, align 4
  store ptr %lits, ptr %lits.addr, align 8
  %this1 = load ptr, ptr %this.addr, align 8
  %m_lits = getelementptr inbounds %"class.sat::cut_simplifier", ptr %this1, i32 0, i32 5
  call void @_ZN6vectorIN3sat7literalELb0EjE5resetEv(ptr noundef nonnull align 8 dereferenceable(8) %m_lits)
  %m_lits2 = getelementptr inbounds %"class.sat::cut_simplifier", ptr %this1, i32 0, i32 5
  %0 = load i32, ptr %sz.addr, align 4
  %1 = load ptr, ptr %lits.addr, align 8
  call void @_ZN6vectorIN3sat7literalELb0EjE6appendEjPKS1_(ptr noundef nonnull align 8 dereferenceable(8) %m_lits2, i32 noundef %0, ptr noundef %1)
  store i32 0, ptr %i, align 4
  br label %for.cond

for.cond:                                         ; preds = %for.inc, %entry
  %2 = load i32, ptr %i, align 4
  %3 = load i32, ptr %sz.addr, align 4
  %cmp = icmp ult i32 %2, %3
  br i1 %cmp, label %for.body, label %for.end

for.body:                                         ; preds = %for.cond
  %m_lits3 = getelementptr inbounds %"class.sat::cut_simplifier", ptr %this1, i32 0, i32 5
  %4 = load i32, ptr %i, align 4
  %call = call noundef nonnull align 4 dereferenceable(4) ptr @_ZN6vectorIN3sat7literalELb0EjEixEj(ptr noundef nonnull align 8 dereferenceable(8) %m_lits3, i32 noundef %4)
  call void @_ZN3sat7literal3negEv(ptr noundef nonnull align 4 dereferenceable(4) %call)
  br label %for.inc

for.inc:                                          ; preds = %for.body
  %5 = load i32, ptr %i, align 4
  %inc = add i32 %5, 1
  store i32 %inc, ptr %i, align 4
  br label %for.cond, !llvm.loop !6

for.end:                                          ; preds = %for.cond
  %m_aig_cuts = getelementptr inbounds %"class.sat::cut_simplifier", ptr %this1, i32 0, i32 3
  call void @llvm.memcpy.p0.p0.i64(ptr align 4 %agg.tmp4, ptr align 4 %head, i64 4, i1 false)
  %coerce.dive5 = getelementptr inbounds %"class.sat::literal", ptr %agg.tmp4, i32 0, i32 0
  %6 = load i32, ptr %coerce.dive5, align 4
  %call6 = call i32 @_ZN3satcoENS_7literalE(i32 %6)
  %coerce.dive7 = getelementptr inbounds %"class.sat::literal", ptr %agg.tmp, i32 0, i32 0
  store i32 %call6, ptr %coerce.dive7, align 4
  %7 = load i32, ptr %sz.addr, align 4
  %m_lits8 = getelementptr inbounds %"class.sat::cut_simplifier", ptr %this1, i32 0, i32 5
  %call9 = call noundef ptr @_ZNK6vectorIN3sat7literalELb0EjE4dataEv(ptr noundef nonnull align 8 dereferenceable(8) %m_lits8)
  %coerce.dive10 = getelementptr inbounds %"class.sat::literal", ptr %agg.tmp, i32 0, i32 0
  %8 = load i32, ptr %coerce.dive10, align 4
  call void @_ZN3sat8aig_cuts8add_nodeENS_7literalENS_7bool_opEjPKS1_(ptr noundef nonnull align 8 dereferenceable(480) %m_aig_cuts, i32 %8, i32 noundef 1, i32 noundef %7, ptr noundef %call9)
  %m_stats = getelementptr inbounds %"class.sat::cut_simplifier", ptr %this1, i32 0, i32 1
  %m_num_ands = getelementptr inbounds %"struct.sat::cut_simplifier::stats", ptr %m_stats, i32 0, i32 4
  %9 = load i32, ptr %m_num_ands, align 8
  %inc11 = add i32 %9, 1
  store i32 %inc11, ptr %m_num_ands, align 8
  ret void
}