; Function Attrs: mustprogress uwtable
define hidden void @_ZN3sat14cut_simplifier6add_orENS_7literalEjPKS1_(ptr noundef nonnull align 8 dereferenceable(600) %this, i32 %head.coerce, i32 noundef %sz, ptr nocapture noundef readonly %lits) local_unnamed_addr #3 align 2 {
entry:
  %m_lits = getelementptr inbounds i8, ptr %this, i64 560
  %0 = load ptr, ptr %m_lits, align 8
  %tobool.not.i = icmp eq ptr %0, null
  br i1 %tobool.not.i, label %_ZN6vectorIN3sat7literalELb0EjE5resetEv.exit, label %if.then.i

if.then.i:                                        ; preds = %entry
  %arrayidx.i = getelementptr inbounds i8, ptr %0, i64 -4
  store i32 0, ptr %arrayidx.i, align 4
  br label %_ZN6vectorIN3sat7literalELb0EjE5resetEv.exit

_ZN6vectorIN3sat7literalELb0EjE5resetEv.exit:     ; preds = %entry, %if.then.i
  %cmp3.not.i = icmp eq i32 %sz, 0
  br i1 %cmp3.not.i, label %for.end, label %for.body.preheader.i

for.body.preheader.i:                             ; preds = %_ZN6vectorIN3sat7literalELb0EjE5resetEv.exit
  %wide.trip.count.i = zext i32 %sz to i64
  br label %for.body.i

for.body.i:                                       ; preds = %_ZN6vectorIN3sat7literalELb0EjE9push_backERKS1_.exit.i, %for.body.preheader.i
  %indvars.iv.i = phi i64 [ 0, %for.body.preheader.i ], [ %indvars.iv.next.i, %_ZN6vectorIN3sat7literalELb0EjE9push_backERKS1_.exit.i ]
  %arrayidx.i5 = getelementptr inbounds %"class.sat::literal", ptr %lits, i64 %indvars.iv.i
  %1 = load ptr, ptr %m_lits, align 8
  %cmp.i.i = icmp eq ptr %1, null
  br i1 %cmp.i.i, label %if.then.i.i, label %lor.lhs.false.i.i

lor.lhs.false.i.i:                                ; preds = %for.body.i
  %arrayidx.i.i = getelementptr inbounds i8, ptr %1, i64 -4
  %2 = load i32, ptr %arrayidx.i.i, align 4
  %arrayidx4.i.i = getelementptr inbounds i8, ptr %1, i64 -8
  %3 = load i32, ptr %arrayidx4.i.i, align 4
  %cmp5.i.i = icmp eq i32 %2, %3
  br i1 %cmp5.i.i, label %if.then.i.i, label %_ZN6vectorIN3sat7literalELb0EjE9push_backERKS1_.exit.i

if.then.i.i:                                      ; preds = %lor.lhs.false.i.i, %for.body.i
  tail call void @_ZN6vectorIN3sat7literalELb0EjE13expand_vectorEv(ptr noundef nonnull align 8 dereferenceable(8) %m_lits)
  %.pre.i.i = load ptr, ptr %m_lits, align 8
  %arrayidx8.phi.trans.insert.i.i = getelementptr inbounds i8, ptr %.pre.i.i, i64 -4
  %.pre1.i.i = load i32, ptr %arrayidx8.phi.trans.insert.i.i, align 4
  br label %_ZN6vectorIN3sat7literalELb0EjE9push_backERKS1_.exit.i

_ZN6vectorIN3sat7literalELb0EjE9push_backERKS1_.exit.i: ; preds = %if.then.i.i, %lor.lhs.false.i.i
  %4 = phi i32 [ %.pre1.i.i, %if.then.i.i ], [ %2, %lor.lhs.false.i.i ]
  %5 = phi ptr [ %.pre.i.i, %if.then.i.i ], [ %1, %lor.lhs.false.i.i ]
  %idx.ext.i.i = zext i32 %4 to i64
  %add.ptr.i.i = getelementptr inbounds %"class.sat::literal", ptr %5, i64 %idx.ext.i.i
  %6 = load i32, ptr %arrayidx.i5, align 4
  store i32 %6, ptr %add.ptr.i.i, align 4
  %7 = load ptr, ptr %m_lits, align 8
  %arrayidx10.i.i = getelementptr inbounds i8, ptr %7, i64 -4
  %8 = load i32, ptr %arrayidx10.i.i, align 4
  %inc.i.i = add i32 %8, 1
  store i32 %inc.i.i, ptr %arrayidx10.i.i, align 4
  %indvars.iv.next.i = add nuw nsw i64 %indvars.iv.i, 1
  %exitcond.not.i = icmp eq i64 %indvars.iv.next.i, %wide.trip.count.i
  br i1 %exitcond.not.i, label %_ZN6vectorIN3sat7literalELb0EjE6appendEjPKS1_.exit, label %for.body.i, !llvm.loop !8

_ZN6vectorIN3sat7literalELb0EjE6appendEjPKS1_.exit: ; preds = %_ZN6vectorIN3sat7literalELb0EjE9push_backERKS1_.exit.i
  br i1 %cmp3.not.i, label %for.end, label %for.body.preheader

for.body.preheader:                               ; preds = %_ZN6vectorIN3sat7literalELb0EjE6appendEjPKS1_.exit
  %wide.trip.count = zext i32 %sz to i64
  br label %for.body

for.body:                                         ; preds = %for.body.preheader, %for.body
  %indvars.iv = phi i64 [ 0, %for.body.preheader ], [ %indvars.iv.next, %for.body ]
  %9 = load ptr, ptr %m_lits, align 8
  %arrayidx.i6 = getelementptr inbounds %"class.sat::literal", ptr %9, i64 %indvars.iv
  %10 = load i32, ptr %arrayidx.i6, align 4
  %xor.i = xor i32 %10, 1
  store i32 %xor.i, ptr %arrayidx.i6, align 4
  %indvars.iv.next = add nuw nsw i64 %indvars.iv, 1
  %exitcond.not = icmp eq i64 %indvars.iv.next, %wide.trip.count
  br i1 %exitcond.not, label %for.end, label %for.body, !llvm.loop !9

for.end:                                          ; preds = %for.body, %_ZN6vectorIN3sat7literalELb0EjE5resetEv.exit, %_ZN6vectorIN3sat7literalELb0EjE6appendEjPKS1_.exit
  %m_aig_cuts = getelementptr inbounds i8, ptr %this, i64 72
  %xor.i7 = xor i32 %head.coerce, 1
  %11 = load ptr, ptr %m_lits, align 8
  tail call void @_ZN3sat8aig_cuts8add_nodeENS_7literalENS_7bool_opEjPKS1_(ptr noundef nonnull align 8 dereferenceable(480) %m_aig_cuts, i32 %xor.i7, i32 noundef 1, i32 noundef %sz, ptr noundef %11)
  %m_num_ands = getelementptr inbounds i8, ptr %this, i64 24
  %12 = load i32, ptr %m_num_ands, align 8
  %inc11 = add i32 %12, 1
  store i32 %inc11, ptr %m_num_ands, align 8
  ret void
}